target datalayout = "e-m:e-p270:32:32-p271:32:32-p272:64:64-i64:64-i128:128-f80:128-n8:16:32:64-S128"
target triple = "x86_64-pc-linux-gnu"

@.str.76 = private unnamed_addr constant [12 x i8] c"\EA\AC\B9%s|%s\EA\AC\B9\00", align 1

; Function Attrs: nounwind uwtable
define internal i32 @_menuitem_manage_quick_presets_traverse(ptr noundef %0, ptr noundef %1, ptr noundef %2, ptr noundef %3) #0 {
  %5 = alloca ptr, align 8
  %6 = alloca ptr, align 8
  %7 = alloca ptr, align 8
  %8 = alloca ptr, align 8
  %9 = alloca ptr, align 8
  %10 = alloca ptr, align 8
  %11 = alloca ptr, align 8
  %12 = alloca i32, align 4
  store ptr %0, ptr %5, align 8, !tbaa !204
  store ptr %1, ptr %6, align 8, !tbaa !242
  store ptr %2, ptr %7, align 8, !tbaa !244
  store ptr %3, ptr %8, align 8, !tbaa !17
  call void @llvm.lifetime.start.p0(i64 8, ptr %9) #11
  %13 = load ptr, ptr %8, align 8, !tbaa !17
  store ptr %13, ptr %9, align 8, !tbaa !246
  call void @llvm.lifetime.start.p0(i64 8, ptr %10) #11
  store ptr null, ptr %10, align 8, !tbaa !11
  call void @llvm.lifetime.start.p0(i64 8, ptr %11) #11
  store ptr null, ptr %11, align 8, !tbaa !11
  call void @llvm.lifetime.start.p0(i64 4, ptr %12) #11
  store i32 0, ptr %12, align 4, !tbaa !13
  %14 = load ptr, ptr %5, align 8, !tbaa !204
  %15 = load ptr, ptr %7, align 8, !tbaa !244
  call void (ptr, ptr, ...) @gtk_tree_model_get(ptr noundef %14, ptr noundef %15, i32 noundef 1, ptr noundef %12, i32 noundef 3, ptr noundef %11, i32 noundef 4, ptr noundef %10, i32 noundef -1)
  %16 = load i32, ptr %12, align 4, !tbaa !13
  %17 = icmp ne i32 %16, 0
  br i1 %17, label %18, label %28

18:                                               ; preds = %4
  %19 = load ptr, ptr %10, align 8, !tbaa !11
  %20 = icmp ne ptr %19, null
  br i1 %20, label %21, label %28

21:                                               ; preds = %18
  %22 = load ptr, ptr %11, align 8, !tbaa !11
  %23 = icmp ne ptr %22, null
  br i1 %23, label %24, label %28

24:                                               ; preds = %21
  %25 = load ptr, ptr %9, align 8, !tbaa !246
  %26 = load ptr, ptr %11, align 8, !tbaa !11
  %27 = load ptr, ptr %10, align 8, !tbaa !11
  call void (ptr, ptr, ...) @dt_util_str_cat(ptr noundef %25, ptr noundef @.str.76, ptr noundef %26, ptr noundef %27)
  br label %28

28:                                               ; preds = %24, %21, %18, %4
  %29 = load ptr, ptr %11, align 8, !tbaa !11
  call void @g_free(ptr noundef %29)
  %30 = load ptr, ptr %10, align 8, !tbaa !11
  call void @g_free(ptr noundef %30)
  call void @llvm.lifetime.end.p0(i64 4, ptr %12) #11
  call void @llvm.lifetime.end.p0(i64 8, ptr %11) #11
  call void @llvm.lifetime.end.p0(i64 8, ptr %10) #11
  call void @llvm.lifetime.end.p0(i64 8, ptr %9) #11
  ret i32 0
}