; Function Attrs: nounwind uwtable
define internal noundef i32 @_menuitem_manage_quick_presets_traverse(ptr noundef %0, ptr readnone captures(none) %1, ptr noundef %2, ptr noundef %3) #0 {
  %5 = alloca ptr, align 8
  %6 = alloca ptr, align 8
  %7 = alloca i32, align 4
  call void @llvm.lifetime.start.p0(i64 8, ptr nonnull %5) #16
  store ptr null, ptr %5, align 8, !tbaa !108
  call void @llvm.lifetime.start.p0(i64 8, ptr nonnull %6) #16
  store ptr null, ptr %6, align 8, !tbaa !108
  call void @llvm.lifetime.start.p0(i64 4, ptr nonnull %7) #16
  store i32 0, ptr %7, align 4, !tbaa !117
  call void (ptr, ptr, ...) @gtk_tree_model_get(ptr noundef %0, ptr noundef %2, i32 noundef 1, ptr noundef nonnull %7, i32 noundef 3, ptr noundef nonnull %6, i32 noundef 4, ptr noundef nonnull %5, i32 noundef -1) #16
  %8 = load i32, ptr %7, align 4, !tbaa !117
  %9 = icmp ne i32 %8, 0
  %10 = load ptr, ptr %5, align 8
  %11 = icmp ne ptr %10, null
  %or.cond = select i1 %9, i1 %11, i1 false
  %12 = load ptr, ptr %6, align 8
  %13 = icmp ne ptr %12, null
  %or.cond3 = select i1 %or.cond, i1 %13, i1 false
  br i1 %or.cond3, label %14, label %15

14:                                               ; preds = %4
  call void (ptr, ptr, ...) @dt_util_str_cat(ptr noundef %3, ptr noundef nonnull @.str.76, ptr noundef nonnull %12, ptr noundef nonnull %10) #16
  %.pre = load ptr, ptr %6, align 8, !tbaa !108
  br label %15

15:                                               ; preds = %14, %4
  %16 = phi ptr [ %.pre, %14 ], [ %12, %4 ]
  call void @g_free(ptr noundef %16) #16
  %17 = load ptr, ptr %5, align 8, !tbaa !108
  call void @g_free(ptr noundef %17) #16
  call void @llvm.lifetime.end.p0(i64 4, ptr nonnull %7) #16
  call void @llvm.lifetime.end.p0(i64 8, ptr nonnull %6) #16
  call void @llvm.lifetime.end.p0(i64 8, ptr nonnull %5) #16
  ret i32 0
}